(dp0
S'METTS MARK'
p1
(dp2
S'to_messages'
p3
I807
sS'deferral_payments'
p4
F0.0
sS'expenses'
p5
I94299
sS'poi'
p6
I00
sS'deferred_income'
p7
F0.0
sS'email_address'
p8
S'mark.metts@enron.com'
p9
sS'from_poi_to_this_person'
p10
I38
sS'restricted_stock_deferred'
p11
F0.0
sS'shared_receipt_with_poi'
p12
I702
sS'loan_advances'
p13
F0.0
sS'from_messages'
p14
I29
sS'other'
p15
I1740
sS'ceo_to_employee_salary_difference'
p16
I745470
sS'director_fees'
p17
F0.0
sS'bonus'
p18
I600000
sS'total_stock_value'
p19
I585062
sS'from_this_person_to_poi'
p20
I1
sS'long_term_incentive'
p21
F0.0
sS'restricted_stock'
p22
I585062
sS'salary'
p23
I365788
sS'total_payments'
p24
I1061827
sS'ceo_to_employee_bonus_difference'
p25
I5000000
sS'exercised_stock_options'
p26
F0.0
ssS'BAXTER JOHN C'
p27
(dp28
g3
F0.0
sg4
I1295738
sg5
I11200
sg6
I00
sg7
I-1386055
sg8
S'NaN'
p29
sg10
F0.0
sg11
F0.0
sg12
F0.0
sg13
F0.0
sg14
F0.0
sg15
I2660303
sS'ceo_to_employee_salary_difference'
p30
I844156
sg17
F0.0
sg18
I1200000
sg19
I10623258
sg20
F0.0
sg21
I1586055
sg22
I3942714
sg23
I267102
sg24
I5634343
sS'ceo_to_employee_bonus_difference'
p31
I4400000
sg26
I6680544
ssS'ELLIOTT STEVEN'
p32
(dp33
g3
F0.0
sg4
F0.0
sg5
I78552
sg6
I00
sg7
I-400729
sg8
S'steven.elliott@enron.com'
p34
sg10
F0.0
sg11
F0.0
sg12
F0.0
sg13
F0.0
sg14
F0.0
sg15
I12961
sS'ceo_to_employee_salary_difference'
p35
I940317
sg17
F0.0
sg18
I350000
sg19
I6678735
sg20
F0.0
sg21
F0.0
sg22
I1788391
sg23
I170941
sg24
I211725
sS'ceo_to_employee_bonus_difference'
p36
I5250000
sg26
I4890344
ssS'CORDES WILLIAM R'
p37
(dp38
g3
I764
sg4
F0.0
sg5
F0.0
sg6
I00
sg7
F0.0
sg8
S'bill.cordes@enron.com'
p39
sg10
I10
sg11
F0.0
sg12
I58
sg13
F0.0
sg14
I12
sg15
F0.0
sS'ceo_to_employee_salary_difference'
p40
F1111258.0
sg17
F0.0
sg18
F0.0
sg19
I1038185
sg20
I0
sg21
F0.0
sg22
I386335
sg23
F0.0
sg24
F0.0
sS'ceo_to_employee_bonus_difference'
p41
F5600000.0
sg26
I651850
ssS'HANNON KEVIN P'
p42
(dp43
g3
I1045
sg4
F0.0
sg5
I34039
sg6
I01
sg7
I-3117011
sg8
S'kevin.hannon@enron.com'
p44
sg10
I32
sg11
F0.0
sg12
I1035
sg13
F0.0
sg14
I32
sg15
I11350
sS'ceo_to_employee_salary_difference'
p45
I867965
sg17
F0.0
sg18
I1500000
sg19
I6391065
sg20
I21
sg21
I1617011
sg22
I853064
sg23
I243293
sg24
I288682
sS'ceo_to_employee_bonus_difference'
p46
I4100000
sg26
I5538001
ssS'MORDAUNT KRISTINA M'
p47
(dp48
g3
F0.0
sg4
F0.0
sg5
I35018
sg6
I00
sg7
F0.0
sg8
S'kristina.mordaunt@enron.com'
p49
sg10
F0.0
sg11
F0.0
sg12
F0.0
sg13
F0.0
sg14
F0.0
sg15
I1411
sS'ceo_to_employee_salary_difference'
p50
I844165
sg17
F0.0
sg18
I325000
sg19
I208510
sg20
F0.0
sg21
F0.0
sg22
I208510
sg23
I267093
sg24
I628522
sS'ceo_to_employee_bonus_difference'
p51
I5275000
sg26
F0.0
ssS'MEYER ROCKFORD G'
p52
(dp53
g3
I232
sg4
I1848227
sg5
F0.0
sg6
I00
sg7
F0.0
sg8
S'rockford.meyer@enron.com'
p54
sg10
I0
sg11
F0.0
sg12
I22
sg13
F0.0
sg14
I28
sg15
F0.0
sS'ceo_to_employee_salary_difference'
p55
F1111258.0
sg17
F0.0
sg18
F0.0
sg19
I955873
sg20
I0
sg21
F0.0
sg22
I462384
sg23
F0.0
sg24
I1848227
sS'ceo_to_employee_bonus_difference'
p56
F5600000.0
sg26
I493489
ssS'MCMAHON JEFFREY'
p57
(dp58
g3
I2355
sg4
F0.0
sg5
I137108
sg6
I00
sg7
F0.0
sg8
S'jeffrey.mcmahon@enron.com'
p59
sg10
I58
sg11
F0.0
sg12
I2228
sg13
F0.0
sg14
I48
sg15
I297353
sS'ceo_to_employee_salary_difference'
p60
I740810
sg17
F0.0
sg18
I2600000
sg19
I1662855
sg20
I26
sg21
I694862
sg22
I558801
sg23
I370448
sg24
I4099771
sS'ceo_to_employee_bonus_difference'
p61
I3000000
sg26
I1104054
ssS'HAEDICKE MARK E'
p62
(dp63
g3
I4009
sg4
I2157527
sg5
I76169
sg6
I00
sg7
I-934484
sg8
S'mark.haedicke@enron.com'
p64
sg10
I180
sg11
I-329825
sg12
I1847
sg13
F0.0
sg14
I1941
sg15
I52382
sS'ceo_to_employee_salary_difference'
p65
I737133
sg17
F0.0
sg18
I1150000
sg19
I803094
sg20
I61
sg21
I983346
sg22
I524169
sg23
I374125
sg24
I3859065
sS'ceo_to_employee_bonus_difference'
p66
I4450000
sg26
I608750
ssS'PIPER GREGORY F'
p67
(dp68
g3
I1238
sg4
I1130036
sg5
I43057
sg6
I00
sg7
I-33333
sg8
S'greg.piper@enron.com'
p69
sg10
I61
sg11
I-409554
sg12
I742
sg13
F0.0
sg14
I222
sg15
I778
sS'ceo_to_employee_salary_difference'
p70
I914167
sg17
F0.0
sg18
I400000
sg19
I880290
sg20
I48
sg21
F0.0
sg22
I409554
sg23
I197091
sg24
I1737629
sS'ceo_to_employee_bonus_difference'
p71
I5200000
sg26
I880290
ssS'HUMPHREY GENE E'
p72
(dp73
g3
I128
sg4
I2964506
sg5
I4994
sg6
I00
sg7
F0.0
sg8
S'gene.humphrey@enron.com'
p74
sg10
I10
sg11
F0.0
sg12
I119
sg13
F0.0
sg14
I17
sg15
F0.0
sS'ceo_to_employee_salary_difference'
p75
I980534
sg17
F0.0
sg18
F0.0
sg19
I2282768
sg20
I17
sg21
F0.0
sg22
F0.0
sg23
I130724
sg24
I3100224
sS'ceo_to_employee_bonus_difference'
p76
F5600000.0
sg26
I2282768
ssS'NOLES JAMES L'
p77
(dp78
g3
F0.0
sg4
I774401
sg5
F0.0
sg6
I00
sg7
F0.0
sg8
g29
sg10
F0.0
sg11
I-94556
sg12
F0.0
sg13
F0.0
sg14
F0.0
sg15
F0.0
sS'ceo_to_employee_salary_difference'
p79
F1111258.0
sg17
F0.0
sg18
F0.0
sg19
I368705
sg20
F0.0
sg21
F0.0
sg22
I463261
sg23
F0.0
sg24
I774401
sS'ceo_to_employee_bonus_difference'
p80
F5600000.0
sg26
F0.0
ssS'BLACHMAN JEREMY M'
p81
(dp82
g3
I2475
sg4
F0.0
sg5
I84208
sg6
I00
sg7
F0.0
sg8
S'jeremy.blachman@enron.com'
p83
sg10
I25
sg11
F0.0
sg12
I2326
sg13
F0.0
sg14
I14
sg15
I272
sS'ceo_to_employee_salary_difference'
p84
I862712
sg17
F0.0
sg18
I850000
sg19
I954354
sg20
I2
sg21
I831809
sg22
I189041
sg23
I248546
sg24
I2014835
sS'ceo_to_employee_bonus_difference'
p85
I4750000
sg26
I765313
ssS'SUNDE MARTIN'
p86
(dp87
g3
I2647
sg4
F0.0
sg5
F0.0
sg6
I00
sg7
F0.0
sg8
S'marty.sunde@enron.com'
p88
sg10
I37
sg11
F0.0
sg12
I2565
sg13
F0.0
sg14
I38
sg15
I111122
sS'ceo_to_employee_salary_difference'
p89
I853772
sg17
F0.0
sg18
I700000
sg19
I698920
sg20
I13
sg21
I476451
sg22
I698920
sg23
I257486
sg24
I1545059
sS'ceo_to_employee_bonus_difference'
p90
I4900000
sg26
F0.0
ssS'GIBBS DANA R'
p91
(dp92
g3
I169
sg4
I504610
sg5
F0.0
sg6
I00
sg7
F0.0
sg8
S'dana.gibbs@enron.com'
p93
sg10
I0
sg11
F0.0
sg12
I23
sg13
F0.0
sg14
I12
sg15
F0.0
sS'ceo_to_employee_salary_difference'
p94
F1111258.0
sg17
F0.0
sg18
F0.0
sg19
I2218275
sg20
I0
sg21
I461912
sg22
F0.0
sg23
F0.0
sg24
I966522
sS'ceo_to_employee_bonus_difference'
p95
F5600000.0
sg26
I2218275
ssS'LOWRY CHARLES P'
p96
(dp97
g3
F0.0
sg4
F0.0
sg5
F0.0
sg6
I00
sg7
F0.0
sg8
g29
sg10
F0.0
sg11
I-153686
sg12
F0.0
sg13
F0.0
sg14
F0.0
sg15
F0.0
sS'ceo_to_employee_salary_difference'
p98
F1111258.0
sg17
F0.0
sg18
F0.0
sg19
I372205
sg20
F0.0
sg21
F0.0
sg22
I153686
sg23
F0.0
sg24
F0.0
sS'ceo_to_employee_bonus_difference'
p99
F5600000.0
sg26
I372205
ssS'COLWELL WESLEY'
p100
(dp101
g3
I1758
sg4
I27610
sg5
I16514
sg6
I01
sg7
I-144062
sg8
S'wes.colwell@enron.com'
p102
sg10
I240
sg11
F0.0
sg12
I1132
sg13
F0.0
sg14
I40
sg15
I101740
sS'ceo_to_employee_salary_difference'
p103
I822716
sg17
F0.0
sg18
I1200000
sg19
I698242
sg20
I11
sg21
F0.0
sg22
I698242
sg23
I288542
sg24
I1490344
sS'ceo_to_employee_bonus_difference'
p104
I4400000
sg26
F0.0
ssS'MULLER MARK S'
p105
(dp106
g3
I136
sg4
I842924
sg5
F0.0
sg6
I00
sg7
I-719000
sg8
S's..muller@enron.com'
p107
sg10
I12
sg11
F0.0
sg12
I114
sg13
F0.0
sg14
I16
sg15
I947
sS'ceo_to_employee_salary_difference'
p108
I859604
sg17
F0.0
sg18
I1100000
sg19
I1416848
sg20
I0
sg21
I1725545
sg22
I360528
sg23
I251654
sg24
I3202070
sS'ceo_to_employee_bonus_difference'
p109
I4500000
sg26
I1056320
ssS'JACKSON CHARLENE R'
p110
(dp111
g3
I258
sg4
F0.0
sg5
I10181
sg6
I00
sg7
F0.0
sg8
S'charlene.jackson@enron.com'
p112
sg10
I25
sg11
F0.0
sg12
I117
sg13
F0.0
sg14
I56
sg15
I2435
sS'ceo_to_employee_salary_difference'
p113
I822700
sg17
F0.0
sg18
I250000
sg19
I725735
sg20
I19
sg21
F0.0
sg22
I540672
sg23
I288558
sg24
I551174
sS'ceo_to_employee_bonus_difference'
p114
I5350000
sg26
I185063
ssS'WESTFAHL RICHARD K'
p115
(dp116
g3
F0.0
sg4
F0.0
sg5
I51870
sg6
I00
sg7
I-10800
sg8
S'dick.westfahl@enron.com'
p117
sg10
F0.0
sg11
F0.0
sg12
F0.0
sg13
F0.0
sg14
F0.0
sg15
I401130
sS'ceo_to_employee_salary_difference'
p118
I1047514
sg17
F0.0
sg18
F0.0
sg19
I384930
sg20
F0.0
sg21
I256191
sg22
I384930
sg23
I63744
sg24
I762135
sS'ceo_to_employee_bonus_difference'
p119
F5600000.0
sg26
F0.0
ssS'WALTERS GARETH W'
p120
(dp121
g3
F0.0
sg4
I53625
sg5
I33785
sg6
I00
sg7
F0.0
sg8
g29
sg10
F0.0
sg11
F0.0
sg12
F0.0
sg13
F0.0
sg14
F0.0
sg15
F0.0
sS'ceo_to_employee_salary_difference'
p122
F1111258.0
sg17
F0.0
sg18
F0.0
sg19
I1030329
sg20
F0.0
sg21
F0.0
sg22
F0.0
sg23
F0.0
sg24
I87410
sS'ceo_to_employee_bonus_difference'
p123
F5600000.0
sg26
I1030329
ssS'WALLS JR ROBERT H'
p124
(dp125
g3
I671
sg4
F0.0
sg5
I50936
sg6
I00
sg7
F0.0
sg8
S'rob.walls@enron.com'
p126
sg10
I17
sg11
F0.0
sg12
I215
sg13
F0.0
sg14
I146
sg15
I2
sS'ceo_to_employee_salary_difference'
p127
I754167
sg17
F0.0
sg18
I850000
sg19
I5898997
sg20
I0
sg21
I540751
sg22
I1552453
sg23
I357091
sg24
I1798780
sS'ceo_to_employee_bonus_difference'
p128
I4750000
sg26
I4346544
ssS'KITCHEN LOUISE'
p129
(dp130
g3
I8305
sg4
F0.0
sg5
I5774
sg6
I00
sg7
F0.0
sg8
S'louise.kitchen@enron.com'
p131
sg10
I251
sg11
F0.0
sg12
I3669
sg13
F0.0
sg14
I1728
sg15
I93925
sS'ceo_to_employee_salary_difference'
p132
I839816
sg17
F0.0
sg18
I3100000
sg19
I547143
sg20
I194
sg21
F0.0
sg22
I466101
sg23
I271442
sg24
I3471141
sS'ceo_to_employee_bonus_difference'
p133
I2500000
sg26
I81042
ssS'CHAN RONNIE'
p134
(dp135
g3
F0.0
sg4
F0.0
sg5
F0.0
sg6
I00
sg7
I-98784
sg8
g29
sg10
F0.0
sg11
I-32460
sg12
F0.0
sg13
F0.0
sg14
F0.0
sg15
F0.0
sS'ceo_to_employee_salary_difference'
p136
F1111258.0
sg17
I98784
sg18
F0.0
sg19
F0.0
sg20
F0.0
sg21
F0.0
sg22
I32460
sg23
F0.0
sg24
F0.0
sS'ceo_to_employee_bonus_difference'
p137
F5600000.0
sg26
F0.0
ssS'BELFER ROBERT'
p138
(dp139
g3
F0.0
sg4
I-102500
sg5
F0.0
sg6
I00
sg7
F0.0
sg8
g29
sg10
F0.0
sg11
I44093
sg12
F0.0
sg13
F0.0
sg14
F0.0
sg15
F0.0
sS'ceo_to_employee_salary_difference'
p140
F1111258.0
sg17
I3285
sg18
F0.0
sg19
I-44093
sg20
F0.0
sg21
F0.0
sg22
F0.0
sg23
F0.0
sg24
I102500
sS'ceo_to_employee_bonus_difference'
p141
F5600000.0
sg26
I3285
ssS'SHANKMAN JEFFREY A'
p142
(dp143
g3
I3221
sg4
F0.0
sg5
I178979
sg6
I00
sg7
F0.0
sg8
S'jeffrey.shankman@enron.com'
p144
sg10
I94
sg11
F0.0
sg12
I1730
sg13
F0.0
sg14
I2681
sg15
I1191
sS'ceo_to_employee_salary_difference'
p145
I807148
sg17
F0.0
sg18
I2000000
sg19
I2072035
sg20
I83
sg21
I554422
sg22
I630137
sg23
I304110
sg24
I3038702
sS'ceo_to_employee_bonus_difference'
p146
I3600000
sg26
I1441898
ssS'WODRASKA JOHN'
p147
(dp148
g3
F0.0
sg4
F0.0
sg5
F0.0
sg6
I00
sg7
F0.0
sg8
S'john.wodraska@enron.com'
p149
sg10
F0.0
sg11
F0.0
sg12
F0.0
sg13
F0.0
sg14
F0.0
sg15
I189583
sS'ceo_to_employee_salary_difference'
p150
F1111258.0
sg17
F0.0
sg18
F0.0
sg19
F0.0
sg20
F0.0
sg21
F0.0
sg22
F0.0
sg23
F0.0
sg24
I189583
sS'ceo_to_employee_bonus_difference'
p151
F5600000.0
sg26
F0.0
ssS'BERGSIEKER RICHARD P'
p152
(dp153
g3
I383
sg4
F0.0
sg5
I59175
sg6
I00
sg7
I-485813
sg8
S'rick.bergsieker@enron.com'
p154
sg10
I4
sg11
F0.0
sg12
I233
sg13
F0.0
sg14
I59
sg15
I427316
sS'ceo_to_employee_salary_difference'
p155
I923336
sg17
F0.0
sg18
I250000
sg19
I659249
sg20
I0
sg21
I180250
sg22
I659249
sg23
I187922
sg24
I618850
sS'ceo_to_employee_bonus_difference'
p156
I5350000
sg26
F0.0
ssS'URQUHART JOHN A'
p157
(dp158
g3
F0.0
sg4
F0.0
sg5
I228656
sg6
I00
sg7
I-36666
sg8
g29
sg10
F0.0
sg11
F0.0
sg12
F0.0
sg13
F0.0
sg14
F0.0
sg15
F0.0
sS'ceo_to_employee_salary_difference'
p159
F1111258.0
sg17
I36666
sg18
F0.0
sg19
F0.0
sg20
F0.0
sg21
F0.0
sg22
F0.0
sg23
F0.0
sg24
I228656
sS'ceo_to_employee_bonus_difference'
p160
F5600000.0
sg26
F0.0
ssS'BIBI PHILIPPE A'
p161
(dp162
g3
I1607
sg4
F0.0
sg5
I38559
sg6
I00
sg7
F0.0
sg8
S'philippe.bibi@enron.com'
p163
sg10
I23
sg11
F0.0
sg12
I1336
sg13
F0.0
sg14
I40
sg15
I425688
sS'ceo_to_employee_salary_difference'
p164
I897633
sg17
F0.0
sg18
I1000000
sg19
I1843816
sg20
I8
sg21
I369721
sg22
I378082
sg23
I213625
sg24
I2047593
sS'ceo_to_employee_bonus_difference'
p165
I4600000
sg26
I1465734
ssS'RIEKER PAULA H'
p166
(dp167
g3
I1328
sg4
I214678
sg5
I33271
sg6
I01
sg7
I-100000
sg8
S'paula.rieker@enron.com'
p168
sg10
I35
sg11
F0.0
sg12
I1258
sg13
F0.0
sg14
I82
sg15
I1950
sS'ceo_to_employee_salary_difference'
p169
I862057
sg17
F0.0
sg18
I700000
sg19
I1918887
sg20
I48
sg21
F0.0
sg22
I283649
sg23
I249201
sg24
I1099100
sS'ceo_to_employee_bonus_difference'
p170
I4900000
sg26
I1635238
ssS'WHALEY DAVID A'
p171
(dp172
g3
F0.0
sg4
F0.0
sg5
F0.0
sg6
I00
sg7
F0.0
sg8
g29
sg10
F0.0
sg11
F0.0
sg12
F0.0
sg13
F0.0
sg14
F0.0
sg15
F0.0
sS'ceo_to_employee_salary_difference'
p173
F1111258.0
sg17
F0.0
sg18
F0.0
sg19
I98718
sg20
F0.0
sg21
F0.0
sg22
F0.0
sg23
F0.0
sg24
F0.0
sS'ceo_to_employee_bonus_difference'
p174
F5600000.0
sg26
I98718
ssS'BECK SALLY W'
p175
(dp176
g3
I7315
sg4
F0.0
sg5
I37172
sg6
I00
sg7
F0.0
sg8
S'sally.beck@enron.com'
p177
sg10
I144
sg11
F0.0
sg12
I2639
sg13
F0.0
sg14
I4343
sg15
I566
sS'ceo_to_employee_salary_difference'
p178
I879928
sg17
F0.0
sg18
I700000
sg19
I126027
sg20
I386
sg21
F0.0
sg22
I126027
sg23
I231330
sg24
I969068
sS'ceo_to_employee_bonus_difference'
p179
I4900000
sg26
F0.0
ssS'HAUG DAVID L'
p180
(dp181
g3
I573
sg4
F0.0
sg5
I475
sg6
I00
sg7
F0.0
sg8
S'david.haug@enron.com'
p182
sg10
I4
sg11
F0.0
sg12
I471
sg13
F0.0
sg14
I19
sg15
F0.0
sS'ceo_to_employee_salary_difference'
p183
F1111258.0
sg17
F0.0
sg18
F0.0
sg19
I2217299
sg20
I7
sg21
F0.0
sg22
I2217299
sg23
F0.0
sg24
I475
sS'ceo_to_employee_bonus_difference'
p184
F5600000.0
sg26
F0.0
ssS'ECHOLS JOHN B'
p185
(dp186
g3
F0.0
sg4
F0.0
sg5
I21530
sg6
I00
sg7
F0.0
sg8
S'john.echols@enron.com'
p187
sg10
F0.0
sg11
F0.0
sg12
F0.0
sg13
F0.0
sg14
F0.0
sg15
I53775
sS'ceo_to_employee_salary_difference'
p188
I929013
sg17
F0.0
sg18
I200000
sg19
I1008941
sg20
F0.0
sg21
I2234774
sg22
I407503
sg23
I182245
sg24
I2692324
sS'ceo_to_employee_bonus_difference'
p189
I5400000
sg26
I601438
ssS'MENDELSOHN JOHN'
p190
(dp191
g3
F0.0
sg4
F0.0
sg5
I148
sg6
I00
sg7
I-103750
sg8
g29
sg10
F0.0
sg11
F0.0
sg12
F0.0
sg13
F0.0
sg14
F0.0
sg15
F0.0
sS'ceo_to_employee_salary_difference'
p192
F1111258.0
sg17
I103750
sg18
F0.0
sg19
F0.0
sg20
F0.0
sg21
F0.0
sg22
F0.0
sg23
F0.0
sg24
I148
sS'ceo_to_employee_bonus_difference'
p193
F5600000.0
sg26
F0.0
ssS'HICKERSON GARY J'
p194
(dp195
g3
I1320
sg4
F0.0
sg5
I98849
sg6
I00
sg7
F0.0
sg8
S'gary.hickerson@enron.com'
p196
sg10
I40
sg11
F0.0
sg12
I900
sg13
F0.0
sg14
I27
sg15
I1936
sS'ceo_to_employee_salary_difference'
p197
I899470
sg17
F0.0
sg18
I1700000
sg19
I441096
sg20
I1
sg21
I69223
sg22
I441096
sg23
I211788
sg24
I2081796
sS'ceo_to_employee_bonus_difference'
p198
I3900000
sg26
F0.0
ssS'CLINE KENNETH W'
p199
(dp200
g3
F0.0
sg4
F0.0
sg5
F0.0
sg6
I00
sg7
F0.0
sg8
g29
sg10
F0.0
sg11
I-472568
sg12
F0.0
sg13
F0.0
sg14
F0.0
sg15
F0.0
sS'ceo_to_employee_salary_difference'
p201
F1111258.0
sg17
F0.0
sg18
F0.0
sg19
I189518
sg20
F0.0
sg21
F0.0
sg22
I662086
sg23
F0.0
sg24
F0.0
sS'ceo_to_employee_bonus_difference'
p202
F5600000.0
sg26
F0.0
ssS'LEWIS RICHARD'
p203
(dp204
g3
I952
sg4
F0.0
sg5
F0.0
sg6
I00
sg7
F0.0
sg8
S'richard.lewis@enron.com'
p205
sg10
I10
sg11
F0.0
sg12
I739
sg13
F0.0
sg14
I26
sg15
F0.0
sS'ceo_to_employee_salary_difference'
p206
F1111258.0
sg17
F0.0
sg18
F0.0
sg19
I850477
sg20
I0
sg21
F0.0
sg22
F0.0
sg23
F0.0
sg24
F0.0
sS'ceo_to_employee_bonus_difference'
p207
F5600000.0
sg26
I850477
ssS'HAYES ROBERT E'
p208
(dp209
g3
I504
sg4
I7961
sg5
F0.0
sg6
I00
sg7
F0.0
sg8
S'robert.hayes@enron.com'
p210
sg10
I16
sg11
F0.0
sg12
I50
sg13
F0.0
sg14
I12
sg15
F0.0
sS'ceo_to_employee_salary_difference'
p211
F1111258.0
sg17
F0.0
sg18
F0.0
sg19
I151418
sg20
I0
sg21
F0.0
sg22
I151418
sg23
F0.0
sg24
I7961
sS'ceo_to_employee_bonus_difference'
p212
F5600000.0
sg26
F0.0
ssS'KOPPER MICHAEL J'
p213
(dp214
g3
F0.0
sg4
F0.0
sg5
I118134
sg6
I01
sg7
F0.0
sg8
S'michael.kopper@enron.com'
p215
sg10
F0.0
sg11
F0.0
sg12
F0.0
sg13
F0.0
sg14
F0.0
sg15
I907502
sS'ceo_to_employee_salary_difference'
p216
I886953
sg17
F0.0
sg18
I800000
sg19
I985032
sg20
F0.0
sg21
I602671
sg22
I985032
sg23
I224305
sg24
I2652612
sS'ceo_to_employee_bonus_difference'
p217
I4800000
sg26
F0.0
ssS'LEFF DANIEL P'
p218
(dp219
g3
I2822
sg4
F0.0
sg5
F0.0
sg6
I00
sg7
F0.0
sg8
S'dan.leff@enron.com'
p220
sg10
I67
sg11
F0.0
sg12
I2672
sg13
F0.0
sg14
I63
sg15
I3083
sS'ceo_to_employee_salary_difference'
p221
I837512
sg17
F0.0
sg18
I1000000
sg19
I360528
sg20
I14
sg21
I1387399
sg22
I360528
sg23
I273746
sg24
I2664228
sS'ceo_to_employee_bonus_difference'
p222
I4600000
sg26
F0.0
ssS'LAVORATO JOHN J'
p223
(dp224
g3
I7259
sg4
F0.0
sg5
I49537
sg6
I00
sg7
F0.0
sg8
S'john.lavorato@enron.com'
p225
sg10
I528
sg11
F0.0
sg12
I3962
sg13
F0.0
sg14
I2585
sg15
I1552
sS'ceo_to_employee_salary_difference'
p226
I771970
sg17
F0.0
sg18
I8000000
sg19
I5167144
sg20
I411
sg21
I2035380
sg22
I1008149
sg23
I339288
sg24
I10425757
sS'ceo_to_employee_bonus_difference'
p227
I-2400000
sg26
I4158995
ssS'BERBERIAN DAVID'
p228
(dp229
g3
F0.0
sg4
F0.0
sg5
I11892
sg6
I00
sg7
F0.0
sg8
S'david.berberian@enron.com'
p230
sg10
F0.0
sg11
F0.0
sg12
F0.0
sg13
F0.0
sg14
F0.0
sg15
F0.0
sS'ceo_to_employee_salary_difference'
p231
I894676
sg17
F0.0
sg18
F0.0
sg19
I2493616
sg20
F0.0
sg21
F0.0
sg22
I869220
sg23
I216582
sg24
I228474
sS'ceo_to_employee_bonus_difference'
p232
F5600000.0
sg26
I1624396
ssS'DETMERING TIMOTHY J'
p233
(dp234
g3
F0.0
sg4
I875307
sg5
I52255
sg6
I00
sg7
I-775241
sg8
S'timothy.detmering@enron.com'
p235
sg10
F0.0
sg11
I-315068
sg12
F0.0
sg13
F0.0
sg14
F0.0
sg15
I1105
sS'ceo_to_employee_salary_difference'
p236
I900758
sg17
F0.0
sg18
I425000
sg19
I2027865
sg20
F0.0
sg21
I415657
sg22
I315068
sg23
I210500
sg24
I1204583
sS'ceo_to_employee_bonus_difference'
p237
I5175000
sg26
I2027865
ssS'WAKEHAM JOHN'
p238
(dp239
g3
F0.0
sg4
F0.0
sg5
I103773
sg6
I00
sg7
F0.0
sg8
g29
sg10
F0.0
sg11
F0.0
sg12
F0.0
sg13
F0.0
sg14
F0.0
sg15
F0.0
sS'ceo_to_employee_salary_difference'
p240
F1111258.0
sg17
I109298
sg18
F0.0
sg19
F0.0
sg20
F0.0
sg21
F0.0
sg22
F0.0
sg23
F0.0
sg24
I213071
sS'ceo_to_employee_bonus_difference'
p241
F5600000.0
sg26
F0.0
ssS'POWERS WILLIAM'
p242
(dp243
g3
I653
sg4
F0.0
sg5
F0.0
sg6
I00
sg7
I-17500
sg8
S'ken.powers@enron.com'
p244
sg10
I0
sg11
F0.0
sg12
I12
sg13
F0.0
sg14
I26
sg15
F0.0
sS'ceo_to_employee_salary_difference'
p245
F1111258.0
sg17
I17500
sg18
F0.0
sg19
F0.0
sg20
I0
sg21
F0.0
sg22
F0.0
sg23
F0.0
sg24
F0.0
sS'ceo_to_employee_bonus_difference'
p246
F5600000.0
sg26
F0.0
ssS'GOLD JOSEPH'
p247
(dp248
g3
F0.0
sg4
F0.0
sg5
F0.0
sg6
I00
sg7
F0.0
sg8
S'joe.gold@enron.com'
p249
sg10
F0.0
sg11
F0.0
sg12
F0.0
sg13
F0.0
sg14
F0.0
sg15
I819288
sS'ceo_to_employee_salary_difference'
p250
I838378
sg17
F0.0
sg18
I750000
sg19
I877611
sg20
F0.0
sg21
I304805
sg22
I441096
sg23
I272880
sg24
I2146973
sS'ceo_to_employee_bonus_difference'
p251
I4850000
sg26
I436515
ssS'BANNANTINE JAMES M'
p252
(dp253
g3
I566
sg4
F0.0
sg5
I56301
sg6
I00
sg7
I-5104
sg8
S'james.bannantine@enron.com'
p254
sg10
I39
sg11
I-560222
sg12
I465
sg13
F0.0
sg14
I29
sg15
I864523
sS'ceo_to_employee_salary_difference'
p255
I1110781
sg17
F0.0
sg18
F0.0
sg19
I5243487
sg20
I0
sg21
F0.0
sg22
I1757552
sg23
I477
sg24
I916197
sS'ceo_to_employee_bonus_difference'
p256
F5600000.0
sg26
I4046157
ssS'DUNCAN JOHN H'
p257
(dp258
g3
F0.0
sg4
F0.0
sg5
F0.0
sg6
I00
sg7
I-25000
sg8
g29
sg10
F0.0
sg11
F0.0
sg12
F0.0
sg13
F0.0
sg14
F0.0
sg15
F0.0
sS'ceo_to_employee_salary_difference'
p259
F1111258.0
sg17
I102492
sg18
F0.0
sg19
I371750
sg20
F0.0
sg21
F0.0
sg22
F0.0
sg23
F0.0
sg24
I77492
sS'ceo_to_employee_bonus_difference'
p260
F5600000.0
sg26
I371750
ssS'SHAPIRO RICHARD S'
p261
(dp262
g3
I15149
sg4
F0.0
sg5
I137767
sg6
I00
sg7
F0.0
sg8
S'richard.shapiro@enron.com'
p263
sg10
I74
sg11
F0.0
sg12
I4527
sg13
F0.0
sg14
I1215
sg15
I705
sS'ceo_to_employee_salary_difference'
p264
I842182
sg17
F0.0
sg18
I650000
sg19
I987001
sg20
I65
sg21
F0.0
sg22
I379164
sg23
I269076
sg24
I1057548
sS'ceo_to_employee_bonus_difference'
p265
I4950000
sg26
I607837
ssS'SHERRIFF JOHN R'
p266
(dp267
g3
I3187
sg4
F0.0
sg5
F0.0
sg6
I00
sg7
F0.0
sg8
S'john.sherriff@enron.com'
p268
sg10
I28
sg11
F0.0
sg12
I2103
sg13
F0.0
sg14
I92
sg15
I1852186
sS'ceo_to_employee_salary_difference'
p269
I682478
sg17
F0.0
sg18
I1500000
sg19
I3128982
sg20
I23
sg21
I554422
sg22
I1293424
sg23
I428780
sg24
I4335388
sS'ceo_to_employee_bonus_difference'
p270
I4100000
sg26
I1835558
ssS'SHELBY REX'
p271
(dp272
g3
I225
sg4
F0.0
sg5
I22884
sg6
I01
sg7
I-4167
sg8
S'rex.shelby@enron.com'
p273
sg10
I13
sg11
F0.0
sg12
I91
sg13
F0.0
sg14
I39
sg15
I1573324
sS'ceo_to_employee_salary_difference'
p274
I899414
sg17
F0.0
sg18
I200000
sg19
I2493616
sg20
I14
sg21
F0.0
sg22
I869220
sg23
I211844
sg24
I2003885
sS'ceo_to_employee_bonus_difference'
p275
I5400000
sg26
I1624396
ssS'LEMAISTRE CHARLES'
p276
(dp277
g3
F0.0
sg4
F0.0
sg5
F0.0
sg6
I00
sg7
I-25000
sg8
g29
sg10
F0.0
sg11
F0.0
sg12
F0.0
sg13
F0.0
sg14
F0.0
sg15
F0.0
sS'ceo_to_employee_salary_difference'
p278
F1111258.0
sg17
I112492
sg18
F0.0
sg19
I412878
sg20
F0.0
sg21
F0.0
sg22
F0.0
sg23
F0.0
sg24
I87492
sS'ceo_to_employee_bonus_difference'
p279
F5600000.0
sg26
I412878
ssS'DEFFNER JOSEPH M'
p280
(dp281
g3
I714
sg4
F0.0
sg5
I41626
sg6
I00
sg7
F0.0
sg8
S'joseph.deffner@enron.com'
p282
sg10
I115
sg11
F0.0
sg12
I552
sg13
F0.0
sg14
I74
sg15
I25553
sS'ceo_to_employee_salary_difference'
p283
I905137
sg17
F0.0
sg18
I600000
sg19
I159211
sg20
I4
sg21
I335349
sg22
I141833
sg23
I206121
sg24
I1208649
sS'ceo_to_employee_bonus_difference'
p284
I5000000
sg26
I17378
ssS'KISHKILL JOSEPH G'
p285
(dp286
g3
F0.0
sg4
F0.0
sg5
I116335
sg6
I00
sg7
I-51042
sg8
S'joe.kishkill@enron.com'
p287
sg10
F0.0
sg11
F0.0
sg12
F0.0
sg13
F0.0
sg14
F0.0
sg15
I465357
sS'ceo_to_employee_salary_difference'
p288
I937012
sg17
F0.0
sg18
F0.0
sg19
I1034346
sg20
F0.0
sg21
F0.0
sg22
I1034346
sg23
I174246
sg24
I704896
sS'ceo_to_employee_bonus_difference'
p289
F5600000.0
sg26
F0.0
ssS'WHALLEY LAWRENCE G'
p290
(dp291
g3
I6019
sg4
F0.0
sg5
I57838
sg6
I00
sg7
F0.0
sg8
S'greg.whalley@enron.com'
p292
sg10
I186
sg11
F0.0
sg12
I3920
sg13
F0.0
sg14
I556
sg15
I301026
sS'ceo_to_employee_salary_difference'
p293
I600894
sg17
F0.0
sg18
I3000000
sg19
I6079137
sg20
I24
sg21
I808346
sg22
I2796177
sg23
I510364
sg24
I4677574
sS'ceo_to_employee_bonus_difference'
p294
I2600000
sg26
I3282960
ssS'PIRO JIM'
p295
(dp296
g3
I58
sg4
F0.0
sg5
F0.0
sg6
I00
sg7
F0.0
sg8
S'jim.piro@enron.com'
p297
sg10
I0
sg11
F0.0
sg12
I3
sg13
F0.0
sg14
I16
sg15
F0.0
sS'ceo_to_employee_salary_difference'
p298
F1111258.0
sg17
F0.0
sg18
F0.0
sg19
I47304
sg20
I1
sg21
F0.0
sg22
I47304
sg23
F0.0
sg24
F0.0
sS'ceo_to_employee_bonus_difference'
p299
F5600000.0
sg26
F0.0
ssS'MCCONNELL MICHAEL S'
p300
(dp301
g3
I3329
sg4
F0.0
sg5
I81364
sg6
I00
sg7
F0.0
sg8
S'mike.mcconnell@enron.com'
p302
sg10
I92
sg11
F0.0
sg12
I2189
sg13
F0.0
sg14
I2742
sg15
I540
sS'ceo_to_employee_salary_difference'
p303
I746220
sg17
F0.0
sg18
I1100000
sg19
I3101279
sg20
I194
sg21
I554422
sg22
I1478269
sg23
I365038
sg24
I2101364
sS'ceo_to_employee_bonus_difference'
p304
I4500000
sg26
I1623010
ssS'DELAINEY DAVID W'
p305
(dp306
g3
I3093
sg4
F0.0
sg5
I86174
sg6
I01
sg7
F0.0
sg8
S'david.delainey@enron.com'
p307
sg10
I66
sg11
F0.0
sg12
I2097
sg13
F0.0
sg14
I3069
sg15
I1661
sS'ceo_to_employee_salary_difference'
p308
I746095
sg17
F0.0
sg18
I3000000
sg19
I3614261
sg20
I609
sg21
I1294981
sg22
I1323148
sg23
I365163
sg24
I4747979
sS'ceo_to_employee_bonus_difference'
p309
I2600000
sg26
I2291113
ssS'SULLIVAN-SHAKLOVITZ COLLEEN'
p310
(dp311
g3
F0.0
sg4
I181993
sg5
F0.0
sg6
I00
sg7
F0.0
sg8
g29
sg10
F0.0
sg11
F0.0
sg12
F0.0
sg13
F0.0
sg14
F0.0
sg15
I162
sS'ceo_to_employee_salary_difference'
p312
I948479
sg17
F0.0
sg18
I100000
sg19
I1362375
sg20
F0.0
sg21
I554422
sg22
F0.0
sg23
I162779
sg24
I999356
sS'ceo_to_employee_bonus_difference'
p313
I5500000
sg26
I1362375
ssS'WROBEL BRUCE'
p314
(dp315
g3
F0.0
sg4
F0.0
sg5
F0.0
sg6
I00
sg7
F0.0
sg8
g29
sg10
F0.0
sg11
F0.0
sg12
F0.0
sg13
F0.0
sg14
F0.0
sg15
F0.0
sS'ceo_to_employee_salary_difference'
p316
F1111258.0
sg17
F0.0
sg18
F0.0
sg19
I139130
sg20
F0.0
sg21
F0.0
sg22
F0.0
sg23
F0.0
sg24
F0.0
sS'ceo_to_employee_bonus_difference'
p317
F5600000.0
sg26
I139130
ssS'LINDHOLM TOD A'
p318
(dp319
g3
F0.0
sg4
I204075
sg5
I57727
sg6
I00
sg7
F0.0
sg8
S'tod.lindholm@enron.com'
p320
sg10
F0.0
sg11
F0.0
sg12
F0.0
sg13
F0.0
sg14
F0.0
sg15
I2630
sS'ceo_to_employee_salary_difference'
p321
I874801
sg17
F0.0
sg18
I200000
sg19
I3064208
sg20
F0.0
sg21
I175000
sg22
I514847
sg23
I236457
sg24
I875889
sS'ceo_to_employee_bonus_difference'
p322
I5400000
sg26
I2549361
ssS'MEYER JEROME J'
p323
(dp324
g3
F0.0
sg4
F0.0
sg5
I2151
sg6
I00
sg7
I-38346
sg8
g29
sg10
F0.0
sg11
F0.0
sg12
F0.0
sg13
F0.0
sg14
F0.0
sg15
F0.0
sS'ceo_to_employee_salary_difference'
p325
F1111258.0
sg17
I38346
sg18
F0.0
sg19
F0.0
sg20
F0.0
sg21
F0.0
sg22
F0.0
sg23
F0.0
sg24
I2151
sS'ceo_to_employee_bonus_difference'
p326
F5600000.0
sg26
F0.0
ssS'LAY KENNETH L'
p327
(dp328
g3
I4273
sg4
I202911
sg5
I99832
sg6
I01
sg7
I-300000
sg8
S'kenneth.lay@enron.com'
p329
sg10
I123
sg11
F0.0
sg12
I2411
sg13
I81525000
sg14
I36
sg15
I10359729
sS'ceo_to_employee_salary_difference'
p330
I38937
sg17
F0.0
sg18
I7000000
sg19
I49110078
sg20
I16
sg21
I3600000
sg22
I14761694
sg23
I1072321
sg24
I103559793
sS'ceo_to_employee_bonus_difference'
p331
I-1400000
sg26
I34348384
ssS'BUTTS ROBERT H'
p332
(dp333
g3
F0.0
sg4
F0.0
sg5
I9410
sg6
I00
sg7
I-75000
sg8
S'bob.butts@enron.com'
p334
sg10
F0.0
sg11
F0.0
sg12
F0.0
sg13
F0.0
sg14
F0.0
sg15
I150656
sS'ceo_to_employee_salary_difference'
p335
I849742
sg17
F0.0
sg18
I750000
sg19
I417619
sg20
F0.0
sg21
I175000
sg22
I417619
sg23
I261516
sg24
I1271582
sS'ceo_to_employee_bonus_difference'
p336
I4850000
sg26
F0.0
ssS'OLSON CINDY K'
p337
(dp338
g3
I1184
sg4
I77716
sg5
I63791
sg6
I00
sg7
F0.0
sg8
S'cindy.olson@enron.com'
p339
sg10
I20
sg11
F0.0
sg12
I856
sg13
F0.0
sg14
I52
sg15
I972
sS'ceo_to_employee_salary_difference'
p340
I782180
sg17
F0.0
sg18
I750000
sg19
I2606763
sg20
I15
sg21
I100000
sg22
I969729
sg23
I329078
sg24
I1321557
sS'ceo_to_employee_bonus_difference'
p341
I4850000
sg26
I1637034
ssS'MCDONALD REBECCA'
p342
(dp343
g3
I894
sg4
F0.0
sg5
F0.0
sg6
I00
sg7
F0.0
sg8
S'rebecca.mcdonald@enron.com'
p344
sg10
I54
sg11
F0.0
sg12
I720
sg13
F0.0
sg14
I13
sg15
F0.0
sS'ceo_to_employee_salary_difference'
p345
F1111258.0
sg17
F0.0
sg18
F0.0
sg19
I1691366
sg20
I1
sg21
F0.0
sg22
I934065
sg23
F0.0
sg24
F0.0
sS'ceo_to_employee_bonus_difference'
p346
F5600000.0
sg26
I757301
ssS'CUMBERLAND MICHAEL S'
p347
(dp348
g3
F0.0
sg4
F0.0
sg5
I22344
sg6
I00
sg7
F0.0
sg8
g29
sg10
F0.0
sg11
F0.0
sg12
F0.0
sg13
F0.0
sg14
F0.0
sg15
I713
sS'ceo_to_employee_salary_difference'
p349
I926359
sg17
F0.0
sg18
I325000
sg19
I207940
sg20
F0.0
sg21
I275000
sg22
I207940
sg23
I184899
sg24
I807956
sS'ceo_to_employee_bonus_difference'
p350
I5275000
sg26
F0.0
ssS'GAHN ROBERT S'
p351
(dp352
g3
F0.0
sg4
I73122
sg5
I50080
sg6
I00
sg7
I-1042
sg8
g29
sg10
F0.0
sg11
F0.0
sg12
F0.0
sg13
F0.0
sg14
F0.0
sg15
I76547
sS'ceo_to_employee_salary_difference'
p353
I919250
sg17
F0.0
sg18
I509870
sg19
I318607
sg20
F0.0
sg21
F0.0
sg22
I235370
sg23
I192008
sg24
I900585
sS'ceo_to_employee_bonus_difference'
p354
I5090130
sg26
I83237
ssS'BADUM JAMES P'
p355
(dp356
g3
F0.0
sg4
I178980
sg5
I3486
sg6
I00
sg7
F0.0
sg8
g29
sg10
F0.0
sg11
F0.0
sg12
F0.0
sg13
F0.0
sg14
F0.0
sg15
F0.0
sS'ceo_to_employee_salary_difference'
p357
F1111258.0
sg17
F0.0
sg18
F0.0
sg19
I257817
sg20
F0.0
sg21
F0.0
sg22
F0.0
sg23
F0.0
sg24
I182466
sS'ceo_to_employee_bonus_difference'
p358
F5600000.0
sg26
I257817
ssS'HERMANN ROBERT J'
p359
(dp360
g3
F0.0
sg4
F0.0
sg5
I48357
sg6
I00
sg7
I-280000
sg8
S'robert.hermann@enron.com'
p361
sg10
F0.0
sg11
F0.0
sg12
F0.0
sg13
F0.0
sg14
F0.0
sg15
I416441
sS'ceo_to_employee_salary_difference'
p362
I848595
sg17
F0.0
sg18
I700000
sg19
I668132
sg20
F0.0
sg21
I150000
sg22
I480632
sg23
I262663
sg24
I1297461
sS'ceo_to_employee_bonus_difference'
p363
I4900000
sg26
I187500
ssS'FALLON JAMES B'
p364
(dp365
g3
I1755
sg4
F0.0
sg5
I95924
sg6
I00
sg7
F0.0
sg8
S'jim.fallon@enron.com'
p366
sg10
I42
sg11
F0.0
sg12
I1604
sg13
F0.0
sg14
I75
sg15
I401481
sS'ceo_to_employee_salary_difference'
p367
I806670
sg17
F0.0
sg18
I2500000
sg19
I2332399
sg20
I37
sg21
I374347
sg22
I1392142
sg23
I304588
sg24
I3676340
sS'ceo_to_employee_bonus_difference'
p368
I3100000
sg26
I940257
ssS'GATHMANN WILLIAM D'
p369
(dp370
g3
F0.0
sg4
F0.0
sg5
F0.0
sg6
I00
sg7
F0.0
sg8
g29
sg10
F0.0
sg11
I-72419
sg12
F0.0
sg13
F0.0
sg14
F0.0
sg15
F0.0
sS'ceo_to_employee_salary_difference'
p371
F1111258.0
sg17
F0.0
sg18
F0.0
sg19
I1945360
sg20
F0.0
sg21
F0.0
sg22
I264013
sg23
F0.0
sg24
F0.0
sS'ceo_to_employee_bonus_difference'
p372
F5600000.0
sg26
I1753766
ssS'HORTON STANLEY C'
p373
(dp374
g3
I2350
sg4
I3131860
sg5
F0.0
sg6
I00
sg7
F0.0
sg8
S'stanley.horton@enron.com'
p375
sg10
I44
sg11
F0.0
sg12
I1074
sg13
F0.0
sg14
I1073
sg15
F0.0
sS'ceo_to_employee_salary_difference'
p376
F1111258.0
sg17
F0.0
sg18
F0.0
sg19
I7256648
sg20
I15
sg21
F0.0
sg22
I2046079
sg23
F0.0
sg24
I3131860
sS'ceo_to_employee_bonus_difference'
p377
F5600000.0
sg26
I5210569
ssS'BOWEN JR RAYMOND M'
p378
(dp379
g3
I1858
sg4
F0.0
sg5
I65907
sg6
I01
sg7
I-833
sg8
S'raymond.bowen@enron.com'
p380
sg10
I140
sg11
F0.0
sg12
I1593
sg13
F0.0
sg14
I27
sg15
I1621
sS'ceo_to_employee_salary_difference'
p381
I832657
sg17
F0.0
sg18
I1350000
sg19
I252055
sg20
I15
sg21
I974293
sg22
I252055
sg23
I278601
sg24
I2669589
sS'ceo_to_employee_bonus_difference'
p382
I4250000
sg26
F0.0
ssS'GILLIS JOHN'
p383
(dp384
g3
F0.0
sg4
F0.0
sg5
F0.0
sg6
I00
sg7
F0.0
sg8
g29
sg10
F0.0
sg11
F0.0
sg12
F0.0
sg13
F0.0
sg14
F0.0
sg15
F0.0
sS'ceo_to_employee_salary_difference'
p385
F1111258.0
sg17
F0.0
sg18
F0.0
sg19
I85641
sg20
F0.0
sg21
F0.0
sg22
I75838
sg23
F0.0
sg24
F0.0
sS'ceo_to_employee_bonus_difference'
p386
F5600000.0
sg26
I9803
ssS'FITZGERALD JAY L'
p387
(dp388
g3
I936
sg4
F0.0
sg5
I23870
sg6
I00
sg7
F0.0
sg8
S'jay.fitzgerald@enron.com'
p389
sg10
I1
sg11
F0.0
sg12
I723
sg13
F0.0
sg14
I16
sg15
I285414
sS'ceo_to_employee_salary_difference'
p390
I912101
sg17
F0.0
sg18
I350000
sg19
I1621236
sg20
I8
sg21
I556416
sg22
I956775
sg23
I199157
sg24
I1414857
sS'ceo_to_employee_bonus_difference'
p391
I5250000
sg26
I664461
ssS'MORAN MICHAEL P'
p392
(dp393
g3
I672
sg4
F0.0
sg5
F0.0
sg6
I00
sg7
F0.0
sg8
S'michael.moran@enron.com'
p394
sg10
I0
sg11
F0.0
sg12
I127
sg13
F0.0
sg14
I19
sg15
F0.0
sS'ceo_to_employee_salary_difference'
p395
F1111258.0
sg17
F0.0
sg18
F0.0
sg19
I221141
sg20
I0
sg21
F0.0
sg22
I161602
sg23
F0.0
sg24
F0.0
sS'ceo_to_employee_bonus_difference'
p396
F5600000.0
sg26
I59539
ssS'REDMOND BRIAN L'
p397
(dp398
g3
I1671
sg4
F0.0
sg5
I14689
sg6
I00
sg7
F0.0
sg8
S'brian.redmond@enron.com'
p399
sg10
I204
sg11
F0.0
sg12
I1063
sg13
F0.0
sg14
I221
sg15
F0.0
sS'ceo_to_employee_salary_difference'
p400
I1014418
sg17
F0.0
sg18
F0.0
sg19
I7890324
sg20
I49
sg21
F0.0
sg22
I381285
sg23
I96840
sg24
I111529
sS'ceo_to_employee_bonus_difference'
p401
F5600000.0
sg26
I7509039
ssS'BAZELIDES PHILIP J'
p402
(dp403
g3
F0.0
sg4
I684694
sg5
F0.0
sg6
I00
sg7
F0.0
sg8
g29
sg10
F0.0
sg11
F0.0
sg12
F0.0
sg13
F0.0
sg14
F0.0
sg15
I874
sS'ceo_to_employee_salary_difference'
p404
I1030440
sg17
F0.0
sg18
F0.0
sg19
I1599641
sg20
F0.0
sg21
I93750
sg22
F0.0
sg23
I80818
sg24
I860136
sS'ceo_to_employee_bonus_difference'
p405
F5600000.0
sg26
I1599641
ssS'BELDEN TIMOTHY N'
p406
(dp407
g3
I7991
sg4
I2144013
sg5
I17355
sg6
I01
sg7
I-2334434
sg8
S'tim.belden@enron.com'
p408
sg10
I228
sg11
F0.0
sg12
I5521
sg13
F0.0
sg14
I484
sg15
I210698
sS'ceo_to_employee_salary_difference'
p409
I897259
sg17
F0.0
sg18
I5249999
sg19
I1110705
sg20
I108
sg21
F0.0
sg22
I157569
sg23
I213999
sg24
I5501630
sS'ceo_to_employee_bonus_difference'
p410
I350001
sg26
I953136
ssS'DIMICHELE RICHARD G'
p411
(dp412
g3
F0.0
sg4
F0.0
sg5
I35812
sg6
I00
sg7
F0.0
sg8
S'richard.dimichele@enron.com'
p413
sg10
F0.0
sg11
F0.0
sg12
F0.0
sg13
F0.0
sg14
F0.0
sg15
I374689
sS'ceo_to_employee_salary_difference'
p414
I848470
sg17
F0.0
sg18
I1000000
sg19
I8317782
sg20
F0.0
sg21
I694862
sg22
I126027
sg23
I262788
sg24
I2368151
sS'ceo_to_employee_bonus_difference'
p415
I4600000
sg26
I8191755
ssS'DURAN WILLIAM D'
p416
(dp417
g3
I904
sg4
F0.0
sg5
I25785
sg6
I00
sg7
F0.0
sg8
S'w.duran@enron.com'
p418
sg10
I106
sg11
F0.0
sg12
I599
sg13
F0.0
sg14
I12
sg15
I1568
sS'ceo_to_employee_salary_difference'
p419
I900566
sg17
F0.0
sg18
I750000
sg19
I1640910
sg20
I3
sg21
I1105218
sg22
I189041
sg23
I210692
sg24
I2093263
sS'ceo_to_employee_bonus_difference'
p420
I4850000
sg26
I1451869
ssS'THORN TERENCE H'
p421
(dp422
g3
I266
sg4
I16586
sg5
I46145
sg6
I00
sg7
F0.0
sg8
S'terence.thorn@enron.com'
p423
sg10
I0
sg11
F0.0
sg12
I73
sg13
F0.0
sg14
I41
sg15
I426629
sS'ceo_to_employee_salary_difference'
p424
I889165
sg17
F0.0
sg18
F0.0
sg19
I4817796
sg20
I0
sg21
I200000
sg22
I365320
sg23
I222093
sg24
I911453
sS'ceo_to_employee_bonus_difference'
p425
F5600000.0
sg26
I4452476
ssS'FASTOW ANDREW S'
p426
(dp427
g3
F0.0
sg4
F0.0
sg5
I55921
sg6
I01
sg7
I-1386055
sg8
S'andrew.fastow@enron.com'
p428
sg10
F0.0
sg11
F0.0
sg12
F0.0
sg13
F0.0
sg14
F0.0
sg15
I277464
sS'ceo_to_employee_salary_difference'
p429
I670560
sg17
F0.0
sg18
I1300000
sg19
I1794412
sg20
F0.0
sg21
I1736055
sg22
I1794412
sg23
I440698
sg24
I2424083
sS'ceo_to_employee_bonus_difference'
p430
I4300000
sg26
F0.0
ssS'FOY JOE'
p431
(dp432
g3
I57
sg4
I181755
sg5
F0.0
sg6
I00
sg7
F0.0
sg8
S'tracy.foy@enron.com'
p433
sg10
I0
sg11
F0.0
sg12
I2
sg13
F0.0
sg14
I13
sg15
F0.0
sS'ceo_to_employee_salary_difference'
p434
F1111258.0
sg17
F0.0
sg18
F0.0
sg19
I343434
sg20
I0
sg21
F0.0
sg22
F0.0
sg23
F0.0
sg24
I181755
sS'ceo_to_employee_bonus_difference'
p435
F5600000.0
sg26
I343434
ssS'CALGER CHRISTOPHER F'
p436
(dp437
g3
I2598
sg4
F0.0
sg5
I35818
sg6
I01
sg7
I-262500
sg8
S'christopher.calger@enron.com'
p438
sg10
I199
sg11
F0.0
sg12
I2188
sg13
F0.0
sg14
I144
sg15
I486
sS'ceo_to_employee_salary_difference'
p439
I871069
sg17
F0.0
sg18
I1250000
sg19
I126027
sg20
I25
sg21
I375304
sg22
I126027
sg23
I240189
sg24
I1639297
sS'ceo_to_employee_bonus_difference'
p440
I4350000
sg26
F0.0
ssS'RICE KENNETH D'
p441
(dp442
g3
I905
sg4
F0.0
sg5
I46950
sg6
I01
sg7
I-3504386
sg8
S'ken.rice@enron.com'
p443
sg10
I42
sg11
F0.0
sg12
I864
sg13
F0.0
sg14
I18
sg15
I174839
sS'ceo_to_employee_salary_difference'
p444
I690622
sg17
F0.0
sg18
I1750000
sg19
I22542539
sg20
I4
sg21
I1617011
sg22
I2748364
sg23
I420636
sg24
I505050
sS'ceo_to_employee_bonus_difference'
p445
I3850000
sg26
I19794175
ssS'KAMINSKI WINCENTY J'
p446
(dp447
g3
I4607
sg4
F0.0
sg5
I83585
sg6
I00
sg7
F0.0
sg8
S'vince.kaminski@enron.com'
p448
sg10
I41
sg11
F0.0
sg12
I583
sg13
F0.0
sg14
I14368
sg15
I4669
sS'ceo_to_employee_salary_difference'
p449
I836157
sg17
F0.0
sg18
I400000
sg19
I976037
sg20
I171
sg21
I323466
sg22
I126027
sg23
I275101
sg24
I1086821
sS'ceo_to_employee_bonus_difference'
p450
I5200000
sg26
I850010
ssS'LOCKHART EUGENE E'
p451
(dp452
g3
F0.0
sg4
F0.0
sg5
F0.0
sg6
I00
sg7
F0.0
sg8
g29
sg10
F0.0
sg11
F0.0
sg12
F0.0
sg13
F0.0
sg14
F0.0
sg15
F0.0
sS'ceo_to_employee_salary_difference'
p453
F1111258.0
sg17
F0.0
sg18
F0.0
sg19
F0.0
sg20
F0.0
sg21
F0.0
sg22
F0.0
sg23
F0.0
sg24
F0.0
sS'ceo_to_employee_bonus_difference'
p454
F5600000.0
sg26
F0.0
ssS'COX DAVID'
p455
(dp456
g3
I102
sg4
F0.0
sg5
I27861
sg6
I00
sg7
I-41250
sg8
S'chip.cox@enron.com'
p457
sg10
I0
sg11
F0.0
sg12
I71
sg13
F0.0
sg14
I33
sg15
I494
sS'ceo_to_employee_salary_difference'
p458
I796970
sg17
F0.0
sg18
I800000
sg19
I495633
sg20
I4
sg21
F0.0
sg22
I378082
sg23
I314288
sg24
I1101393
sS'ceo_to_employee_bonus_difference'
p459
I4800000
sg26
I117551
ssS'OVERDYKE JR JERE C'
p460
(dp461
g3
F0.0
sg4
F0.0
sg5
I18834
sg6
I00
sg7
F0.0
sg8
S'jere.overdyke@enron.com'
p462
sg10
F0.0
sg11
F0.0
sg12
F0.0
sg13
F0.0
sg14
F0.0
sg15
I176
sS'ceo_to_employee_salary_difference'
p463
I1016317
sg17
F0.0
sg18
F0.0
sg19
I7307594
sg20
F0.0
sg21
I135836
sg22
I2041016
sg23
I94941
sg24
I249787
sS'ceo_to_employee_bonus_difference'
p464
F5600000.0
sg26
I5266578
ssS'PEREIRA PAULO V. FERRAZ'
p465
(dp466
g3
F0.0
sg4
F0.0
sg5
I27942
sg6
I00
sg7
I-101250
sg8
g29
sg10
F0.0
sg11
F0.0
sg12
F0.0
sg13
F0.0
sg14
F0.0
sg15
F0.0
sS'ceo_to_employee_salary_difference'
p467
F1111258.0
sg17
I101250
sg18
F0.0
sg19
F0.0
sg20
F0.0
sg21
F0.0
sg22
F0.0
sg23
F0.0
sg24
I27942
sS'ceo_to_employee_bonus_difference'
p468
F5600000.0
sg26
F0.0
ssS'STABLER FRANK'
p469
(dp470
g3
F0.0
sg4
F0.0
sg5
I16514
sg6
I00
sg7
F0.0
sg8
S'frank.stabler@enron.com'
p471
sg10
F0.0
sg11
F0.0
sg12
F0.0
sg13
F0.0
sg14
F0.0
sg15
I356071
sS'ceo_to_employee_salary_difference'
p472
I871756
sg17
F0.0
sg18
I500000
sg19
I511734
sg20
F0.0
sg21
F0.0
sg22
I511734
sg23
I239502
sg24
I1112087
sS'ceo_to_employee_bonus_difference'
p473
I5100000
sg26
F0.0
ssS'SKILLING JEFFREY K'
p474
(dp475
g3
I3627
sg4
F0.0
sg5
I29336
sg6
I01
sg7
F0.0
sg8
S'jeff.skilling@enron.com'
p476
sg10
I88
sg11
F0.0
sg12
I2042
sg13
F0.0
sg14
I108
sg15
I22122
sS'ceo_to_employee_salary_difference'
p477
I0
sg17
F0.0
sg18
I5600000
sg19
I26093672
sg20
I30
sg21
I1920000
sg22
I6843672
sg23
I1111258
sg24
I8682716
sS'ceo_to_employee_bonus_difference'
p478
I0
sg26
I19250000
ssS'BLAKE JR. NORMAN P'
p479
(dp480
g3
F0.0
sg4
F0.0
sg5
I1279
sg6
I00
sg7
I-113784
sg8
g29
sg10
F0.0
sg11
F0.0
sg12
F0.0
sg13
F0.0
sg14
F0.0
sg15
F0.0
sS'ceo_to_employee_salary_difference'
p481
F1111258.0
sg17
I113784
sg18
F0.0
sg19
F0.0
sg20
F0.0
sg21
F0.0
sg22
F0.0
sg23
F0.0
sg24
I1279
sS'ceo_to_employee_bonus_difference'
p482
F5600000.0
sg26
F0.0
ssS'SHERRICK JEFFREY B'
p483
(dp484
g3
I613
sg4
F0.0
sg5
F0.0
sg6
I00
sg7
F0.0
sg8
S'jeffrey.sherrick@enron.com'
p485
sg10
I39
sg11
F0.0
sg12
I583
sg13
F0.0
sg14
I25
sg15
F0.0
sS'ceo_to_employee_salary_difference'
p486
F1111258.0
sg17
F0.0
sg18
F0.0
sg19
I1832468
sg20
I18
sg21
F0.0
sg22
I405999
sg23
F0.0
sg24
F0.0
sS'ceo_to_employee_bonus_difference'
p487
F5600000.0
sg26
I1426469
ssS'PRENTICE JAMES'
p488
(dp489
g3
F0.0
sg4
I564348
sg5
F0.0
sg6
I00
sg7
F0.0
sg8
S'james.prentice@enron.com'
p490
sg10
F0.0
sg11
F0.0
sg12
F0.0
sg13
F0.0
sg14
F0.0
sg15
F0.0
sS'ceo_to_employee_salary_difference'
p491
F1111258.0
sg17
F0.0
sg18
F0.0
sg19
I1095040
sg20
F0.0
sg21
F0.0
sg22
I208809
sg23
F0.0
sg24
I564348
sS'ceo_to_employee_bonus_difference'
p492
F5600000.0
sg26
I886231
ssS'GRAY RODNEY'
p493
(dp494
g3
F0.0
sg4
I93585
sg5
F0.0
sg6
I00
sg7
F0.0
sg8
g29
sg10
F0.0
sg11
F0.0
sg12
F0.0
sg13
F0.0
sg14
F0.0
sg15
I680833
sS'ceo_to_employee_salary_difference'
p495
I1104643
sg17
F0.0
sg18
F0.0
sg19
F0.0
sg20
F0.0
sg21
I365625
sg22
F0.0
sg23
I6615
sg24
I1146658
sS'ceo_to_employee_bonus_difference'
p496
F5600000.0
sg26
F0.0
ssS'UMANOFF ADAM S'
p497
(dp498
g3
I111
sg4
F0.0
sg5
I53122
sg6
I00
sg7
F0.0
sg8
S'adam.umanoff@enron.com'
p499
sg10
I12
sg11
F0.0
sg12
I41
sg13
F0.0
sg14
I18
sg15
F0.0
sS'ceo_to_employee_salary_difference'
p500
I822669
sg17
F0.0
sg18
I788750
sg19
F0.0
sg20
I0
sg21
F0.0
sg22
F0.0
sg23
I288589
sg24
I1130461
sS'ceo_to_employee_bonus_difference'
p501
I4811250
sg26
F0.0
ssS'KEAN STEVEN J'
p502
(dp503
g3
I12754
sg4
F0.0
sg5
I41953
sg6
I00
sg7
F0.0
sg8
S'steven.kean@enron.com'
p504
sg10
I140
sg11
F0.0
sg12
I3639
sg13
F0.0
sg14
I6759
sg15
I1231
sS'ceo_to_employee_salary_difference'
p505
I706920
sg17
F0.0
sg18
I1000000
sg19
I6153642
sg20
I387
sg21
I300000
sg22
I4131594
sg23
I404338
sg24
I1747522
sS'ceo_to_employee_bonus_difference'
p506
I4600000
sg26
I2022048
ssS'FOWLER PEGGY'
p507
(dp508
g3
I517
sg4
F0.0
sg5
F0.0
sg6
I00
sg7
F0.0
sg8
S'kulvinder.fowler@enron.com'
p509
sg10
I0
sg11
F0.0
sg12
I10
sg13
F0.0
sg14
I36
sg15
F0.0
sS'ceo_to_employee_salary_difference'
p510
F1111258.0
sg17
F0.0
sg18
F0.0
sg19
I1884748
sg20
I0
sg21
F0.0
sg22
I560170
sg23
F0.0
sg24
F0.0
sS'ceo_to_employee_bonus_difference'
p511
F5600000.0
sg26
I1324578
ssS'WASAFF GEORGE'
p512
(dp513
g3
I400
sg4
I831299
sg5
F0.0
sg6
I00
sg7
I-583325
sg8
S'george.wasaff@enron.com'
p514
sg10
I22
sg11
F0.0
sg12
I337
sg13
F0.0
sg14
I30
sg15
I1425
sS'ceo_to_employee_salary_difference'
p515
I851262
sg17
F0.0
sg18
I325000
sg19
I2056427
sg20
I7
sg21
I200000
sg22
I388167
sg23
I259996
sg24
I1034395
sS'ceo_to_employee_bonus_difference'
p516
I5275000
sg26
I1668260
ssS'WHITE JR THOMAS E'
p517
(dp518
g3
F0.0
sg4
F0.0
sg5
I81353
sg6
I00
sg7
F0.0
sg8
S'thomas.white@enron.com'
p519
sg10
F0.0
sg11
F0.0
sg12
F0.0
sg13
F0.0
sg14
F0.0
sg15
I1085463
sS'ceo_to_employee_salary_difference'
p520
I793715
sg17
F0.0
sg18
I450000
sg19
I15144123
sg20
F0.0
sg21
F0.0
sg22
I13847074
sg23
I317543
sg24
I1934359
sS'ceo_to_employee_bonus_difference'
p521
I5150000
sg26
I1297049
ssS'CHRISTODOULOU DIOMEDES'
p522
(dp523
g3
F0.0
sg4
F0.0
sg5
F0.0
sg6
I00
sg7
F0.0
sg8
S'diomedes.christodoulou@enron.com'
p524
sg10
F0.0
sg11
F0.0
sg12
F0.0
sg13
F0.0
sg14
F0.0
sg15
F0.0
sS'ceo_to_employee_salary_difference'
p525
F1111258.0
sg17
F0.0
sg18
F0.0
sg19
I6077885
sg20
F0.0
sg21
F0.0
sg22
I950730
sg23
F0.0
sg24
F0.0
sS'ceo_to_employee_bonus_difference'
p526
F5600000.0
sg26
I5127155
ssS'ALLEN PHILLIP K'
p527
(dp528
g3
I2902
sg4
I2869717
sg5
I13868
sg6
I00
sg7
I-3081055
sg8
S'phillip.allen@enron.com'
p529
sg10
I47
sg11
I-126027
sg12
I1407
sg13
F0.0
sg14
I2195
sg15
I152
sS'ceo_to_employee_salary_difference'
p530
I909303
sg17
F0.0
sg18
I4175000
sg19
I1729541
sg20
I65
sg21
I304805
sg22
I126027
sg23
I201955
sg24
I4484442
sS'ceo_to_employee_bonus_difference'
p531
I1425000
sg26
I1729541
ssS'SHARP VICTORIA T'
p532
(dp533
g3
I3136
sg4
I187469
sg5
I116337
sg6
I00
sg7
F0.0
sg8
S'vicki.sharp@enron.com'
p534
sg10
I24
sg11
F0.0
sg12
I2477
sg13
F0.0
sg14
I136
sg15
I2401
sS'ceo_to_employee_salary_difference'
p535
I863112
sg17
F0.0
sg18
I600000
sg19
I494136
sg20
I6
sg21
I422158
sg22
I213063
sg23
I248146
sg24
I1576511
sS'ceo_to_employee_bonus_difference'
p536
I5000000
sg26
I281073
ssS'JAEDICKE ROBERT'
p537
(dp538
g3
F0.0
sg4
F0.0
sg5
F0.0
sg6
I00
sg7
I-25000
sg8
g29
sg10
F0.0
sg11
I-44093
sg12
F0.0
sg13
F0.0
sg14
F0.0
sg15
F0.0
sS'ceo_to_employee_salary_difference'
p539
F1111258.0
sg17
I108750
sg18
F0.0
sg19
I431750
sg20
F0.0
sg21
F0.0
sg22
I44093
sg23
F0.0
sg24
I83750
sS'ceo_to_employee_bonus_difference'
p540
F5600000.0
sg26
I431750
ssS'WINOKUR JR. HERBERT S'
p541
(dp542
g3
F0.0
sg4
F0.0
sg5
I1413
sg6
I00
sg7
I-25000
sg8
g29
sg10
F0.0
sg11
F0.0
sg12
F0.0
sg13
F0.0
sg14
F0.0
sg15
F0.0
sS'ceo_to_employee_salary_difference'
p543
F1111258.0
sg17
I108579
sg18
F0.0
sg19
F0.0
sg20
F0.0
sg21
F0.0
sg22
F0.0
sg23
F0.0
sg24
I84992
sS'ceo_to_employee_bonus_difference'
p544
F5600000.0
sg26
F0.0
ssS'BROWN MICHAEL'
p545
(dp546
g3
I1486
sg4
F0.0
sg5
I49288
sg6
I00
sg7
F0.0
sg8
S'michael.brown@enron.com'
p547
sg10
I13
sg11
F0.0
sg12
I761
sg13
F0.0
sg14
I41
sg15
F0.0
sS'ceo_to_employee_salary_difference'
p548
F1111258.0
sg17
F0.0
sg18
F0.0
sg19
F0.0
sg20
I1
sg21
F0.0
sg22
F0.0
sg23
F0.0
sg24
I49288
sS'ceo_to_employee_bonus_difference'
p549
F5600000.0
sg26
F0.0
ssS'MCCLELLAN GEORGE'
p550
(dp551
g3
I1744
sg4
F0.0
sg5
I228763
sg6
I00
sg7
I-125000
sg8
S'george.mcclellan@enron.com'
p552
sg10
I52
sg11
F0.0
sg12
I1469
sg13
F0.0
sg14
I49
sg15
I51587
sS'ceo_to_employee_salary_difference'
p553
I847845
sg17
F0.0
sg18
I900000
sg19
I947861
sg20
I0
sg21
F0.0
sg22
I441096
sg23
I263413
sg24
I1318763
sS'ceo_to_employee_bonus_difference'
p554
I4700000
sg26
I506765
ssS'HUGHES JAMES A'
p555
(dp556
g3
I719
sg4
F0.0
sg5
F0.0
sg6
I00
sg7
F0.0
sg8
S'james.hughes@enron.com'
p557
sg10
I35
sg11
F0.0
sg12
I589
sg13
F0.0
sg14
I34
sg15
F0.0
sS'ceo_to_employee_salary_difference'
p558
F1111258.0
sg17
F0.0
sg18
F0.0
sg19
I1118394
sg20
I5
sg21
F0.0
sg22
I363428
sg23
F0.0
sg24
F0.0
sS'ceo_to_employee_bonus_difference'
p559
F5600000.0
sg26
I754966
ssS'REYNOLDS LAWRENCE'
p560
(dp561
g3
F0.0
sg4
I51365
sg5
I8409
sg6
I00
sg7
I-200000
sg8
g29
sg10
F0.0
sg11
I-140264
sg12
F0.0
sg13
F0.0
sg14
F0.0
sg15
I202052
sS'ceo_to_employee_salary_difference'
p562
I1034859
sg17
F0.0
sg18
I100000
sg19
I4221891
sg20
F0.0
sg21
I156250
sg22
I201483
sg23
I76399
sg24
I394475
sS'ceo_to_employee_bonus_difference'
p563
I5500000
sg26
I4160672
ssS'PICKERING MARK R'
p564
(dp565
g3
I898
sg4
F0.0
sg5
I31653
sg6
I00
sg7
F0.0
sg8
S'mark.pickering@enron.com'
p566
sg10
I7
sg11
F0.0
sg12
I728
sg13
I400000
sg14
I67
sg15
F0.0
sS'ceo_to_employee_salary_difference'
p567
I456221
sg17
F0.0
sg18
I300000
sg19
I28798
sg20
I0
sg21
F0.0
sg22
F0.0
sg23
I655037
sg24
I1386690
sS'ceo_to_employee_bonus_difference'
p568
I5300000
sg26
I28798
ssS'BHATNAGAR SANJAY'
p569
(dp570
g3
I523
sg4
F0.0
sg5
F0.0
sg6
I00
sg7
F0.0
sg8
S'sanjay.bhatnagar@enron.com'
p571
sg10
I0
sg11
I15456290
sg12
I463
sg13
F0.0
sg14
I29
sg15
I137864
sS'ceo_to_employee_salary_difference'
p572
F1111258.0
sg17
I137864
sg18
F0.0
sS'total_stock_value'
p573
F0.0
sg20
I1
sg21
F0.0
sg22
I-2604490
sg23
F0.0
sg24
I15456290
sS'ceo_to_employee_bonus_difference'
p574
F5600000.0
sg26
I2604490
ssS'CARTER REBECCA C'
p575
(dp576
g3
I312
sg4
F0.0
sg5
F0.0
sg6
I00
sg7
I-159792
sg8
S'rebecca.carter@enron.com'
p577
sg10
I29
sg11
I-307301
sg12
I196
sg13
F0.0
sg14
I15
sg15
I540
sS'ceo_to_employee_salary_difference'
p578
I849449
sg17
F0.0
sg18
I300000
sg19
F0.0
sg20
I7
sg21
I75000
sg22
I307301
sg23
I261809
sg24
I477557
sS'ceo_to_employee_bonus_difference'
p579
I5300000
sg26
F0.0
ssS'BUCHANAN HAROLD G'
p580
(dp581
g3
I1088
sg4
F0.0
sg5
I600
sg6
I00
sg7
F0.0
sg8
S'john.buchanan@enron.com'
p582
sg10
I0
sg11
F0.0
sg12
I23
sg13
F0.0
sg14
I125
sg15
I1215
sS'ceo_to_employee_salary_difference'
p583
I863241
sg17
F0.0
sg18
I500000
sg19
I1014505
sg20
I0
sg21
I304805
sg22
I189041
sg23
I248017
sg24
I1054637
sS'ceo_to_employee_bonus_difference'
p584
I5100000
sg26
I825464
ssS'YEAP SOON'
p585
(dp586
g3
F0.0
sg4
F0.0
sg5
I55097
sg6
I00
sg7
F0.0
sg8
g29
sg10
F0.0
sg11
F0.0
sg12
F0.0
sg13
F0.0
sg14
F0.0
sg15
F0.0
sS'ceo_to_employee_salary_difference'
p587
F1111258.0
sg17
F0.0
sg18
F0.0
sg19
I192758
sg20
F0.0
sg21
F0.0
sg22
F0.0
sg23
F0.0
sg24
I55097
sS'ceo_to_employee_bonus_difference'
p588
F5600000.0
sg26
I192758
ssS'MURRAY JULIA H'
p589
(dp590
g3
I2192
sg4
F0.0
sg5
I57580
sg6
I00
sg7
F0.0
sg8
S'julia.murray@enron.com'
p591
sg10
I11
sg11
F0.0
sg12
I395
sg13
F0.0
sg14
I45
sg15
I330
sS'ceo_to_employee_salary_difference'
p592
I881974
sg17
F0.0
sg18
I400000
sg19
I597461
sg20
I2
sg21
I125000
sg22
I196983
sg23
I229284
sg24
I812194
sS'ceo_to_employee_bonus_difference'
p593
I5200000
sg26
I400478
ssS'GARLAND C KEVIN'
p594
(dp595
g3
I209
sg4
F0.0
sg5
I48405
sg6
I00
sg7
F0.0
sg8
S'kevin.garland@enron.com'
p596
sg10
I10
sg11
F0.0
sg12
I178
sg13
F0.0
sg14
I44
sg15
I60814
sS'ceo_to_employee_salary_difference'
p597
I879312
sg17
F0.0
sg18
I850000
sg19
I896153
sg20
I27
sg21
I375304
sg22
I259907
sg23
I231946
sg24
I1566469
sS'ceo_to_employee_bonus_difference'
p598
I4750000
sg26
I636246
ssS'DODSON KEITH'
p599
(dp600
g3
I176
sg4
F0.0
sg5
I28164
sg6
I00
sg7
F0.0
sg8
S'keith.dodson@enron.com'
p601
sg10
I10
sg11
F0.0
sg12
I114
sg13
F0.0
sg14
I14
sg15
I774
sS'ceo_to_employee_salary_difference'
p602
I890255
sg17
F0.0
sg18
I70000
sg19
F0.0
sg20
I3
sg21
F0.0
sg22
F0.0
sg23
I221003
sg24
I319941
sS'ceo_to_employee_bonus_difference'
p603
I5530000
sg26
F0.0
ssS'YEAGER F SCOTT'
p604
(dp605
g3
F0.0
sg4
F0.0
sg5
I53947
sg6
I01
sg7
F0.0
sg8
S'scott.yeager@enron.com'
p606
sg10
F0.0
sg11
F0.0
sg12
F0.0
sg13
F0.0
sg14
F0.0
sg15
I147950
sS'ceo_to_employee_salary_difference'
p607
I952855
sg17
F0.0
sg18
F0.0
sg19
I11884758
sg20
F0.0
sg21
F0.0
sg22
I3576206
sg23
I158403
sg24
I360300
sS'ceo_to_employee_bonus_difference'
p608
F5600000.0
sg26
I8308552
ssS'HIRKO JOSEPH'
p609
(dp610
g3
F0.0
sg4
I10259
sg5
I77978
sg6
I01
sg7
F0.0
sg8
S'joe.hirko@enron.com'
p611
sg10
F0.0
sg11
F0.0
sg12
F0.0
sg13
F0.0
sg14
F0.0
sg15
I2856
sS'ceo_to_employee_salary_difference'
p612
F1111258.0
sg17
F0.0
sg18
F0.0
sg19
I30766064
sg20
F0.0
sg21
F0.0
sg22
F0.0
sg23
F0.0
sg24
I91093
sS'ceo_to_employee_bonus_difference'
p613
F5600000.0
sg26
I30766064
ssS'DIETRICH JANET R'
p614
(dp615
g3
I2572
sg4
F0.0
sg5
I3475
sg6
I00
sg7
F0.0
sg8
S'janet.dietrich@enron.com'
p616
sg10
I305
sg11
F0.0
sg12
I1902
sg13
F0.0
sg14
I63
sg15
I473
sS'ceo_to_employee_salary_difference'
p617
I861158
sg17
F0.0
sg18
I600000
sg19
I1865087
sg20
I14
sg21
I556416
sg22
I315068
sg23
I250100
sg24
I1410464
sS'ceo_to_employee_bonus_difference'
p618
I5000000
sg26
I1550019
ssS'DERRICK JR. JAMES V'
p619
(dp620
g3
I2181
sg4
F0.0
sg5
I51124
sg6
I00
sg7
I-1284000
sg8
S'james.derrick@enron.com'
p621
sg10
I64
sg11
I-1787380
sg12
I1401
sg13
F0.0
sg14
I909
sg15
I7482
sS'ceo_to_employee_salary_difference'
p622
I618883
sg17
F0.0
sg18
I800000
sg19
I8831913
sg20
I20
sg21
I484000
sg22
I1787380
sg23
I492375
sg24
I550981
sS'ceo_to_employee_bonus_difference'
p623
I4800000
sg26
I8831913
ssS'FREVERT MARK A'
p624
(dp625
g3
I3275
sg4
I6426990
sg5
I86987
sg6
I00
sg7
I-3367011
sg8
S'mark.frevert@enron.com'
p626
sg10
I242
sg11
F0.0
sg12
I2979
sg13
I2000000
sg14
I21
sg15
I7427621
sS'ceo_to_employee_salary_difference'
p627
I50326
sg17
F0.0
sg18
I2000000
sg19
I14622185
sg20
I6
sg21
I1617011
sg22
I4188667
sg23
I1060932
sg24
I17252530
sS'ceo_to_employee_bonus_difference'
p628
I3600000
sg26
I10433518
ssS'PAI LOU L'
p629
(dp630
g3
F0.0
sg4
F0.0
sg5
I32047
sg6
I00
sg7
F0.0
sg8
S'lou.pai@enron.com'
p631
sg10
F0.0
sg11
F0.0
sg12
F0.0
sg13
F0.0
sg14
F0.0
sg15
I1829457
sS'ceo_to_employee_salary_difference'
p632
I849379
sg17
F0.0
sg18
I1000000
sg19
I23817930
sg20
F0.0
sg21
F0.0
sg22
I8453763
sg23
I261879
sg24
I3123383
sS'ceo_to_employee_bonus_difference'
p633
I4600000
sg26
I15364167
ssS'HAYSLETT RODERICK J'
p634
(dp635
g3
I2649
sg4
F0.0
sg5
F0.0
sg6
I00
sg7
F0.0
sg8
S'rod.hayslett@enron.com'
p636
sg10
I35
sg11
F0.0
sg12
I571
sg13
F0.0
sg14
I1061
sg15
F0.0
sS'ceo_to_employee_salary_difference'
p637
F1111258.0
sg17
F0.0
sg18
F0.0
sg19
I346663
sg20
I38
sg21
F0.0
sg22
I346663
sg23
F0.0
sg24
F0.0
sS'ceo_to_employee_bonus_difference'
p638
F5600000.0
sg26
F0.0
ssS'BAY FRANKLIN R'
p639
(dp640
g3
F0.0
sg4
I260455
sg5
I129142
sg6
I00
sg7
I-201641
sg8
S'frank.bay@enron.com'
p641
sg10
F0.0
sg11
I-82782
sg12
F0.0
sg13
F0.0
sg14
F0.0
sg15
I69
sS'ceo_to_employee_salary_difference'
p642
I871587
sg17
F0.0
sg18
I400000
sg19
I63014
sg20
F0.0
sg21
F0.0
sg22
I145796
sg23
I239671
sg24
I827696
sS'ceo_to_employee_bonus_difference'
p643
I5200000
sg26
F0.0
ssS'MCCARTY DANNY J'
p644
(dp645
g3
I1433
sg4
F0.0
sg5
F0.0
sg6
I00
sg7
F0.0
sg8
S'danny.mccarty@enron.com'
p646
sg10
I25
sg11
F0.0
sg12
I508
sg13
F0.0
sg14
I215
sg15
F0.0
sS'ceo_to_employee_salary_difference'
p647
F1111258.0
sg17
F0.0
sg18
F0.0
sg19
I758931
sg20
I2
sg21
F0.0
sg22
I94556
sg23
F0.0
sg24
F0.0
sS'ceo_to_employee_bonus_difference'
p648
F5600000.0
sg26
I664375
ssS'FUGH JOHN L'
p649
(dp650
g3
F0.0
sg4
I50591
sg5
F0.0
sg6
I00
sg7
F0.0
sg8
g29
sg10
F0.0
sg11
F0.0
sg12
F0.0
sg13
F0.0
sg14
F0.0
sg15
F0.0
sS'ceo_to_employee_salary_difference'
p651
F1111258.0
sg17
F0.0
sg18
F0.0
sg19
I176378
sg20
F0.0
sg21
F0.0
sg22
F0.0
sg23
F0.0
sg24
I50591
sS'ceo_to_employee_bonus_difference'
p652
F5600000.0
sg26
I176378
ssS'SCRIMSHAW MATTHEW'
p653
(dp654
g3
F0.0
sg4
F0.0
sg5
F0.0
sg6
I00
sg7
F0.0
sg8
S'matthew.scrimshaw@enron.com'
p655
sg10
F0.0
sg11
F0.0
sg12
F0.0
sg13
F0.0
sg14
F0.0
sg15
F0.0
sS'ceo_to_employee_salary_difference'
p656
F1111258.0
sg17
F0.0
sg18
F0.0
sg19
I759557
sg20
F0.0
sg21
F0.0
sg22
F0.0
sg23
F0.0
sg24
F0.0
sS'ceo_to_employee_bonus_difference'
p657
F5600000.0
sg26
I759557
ssS'KOENIG MARK E'
p658
(dp659
g3
I2374
sg4
F0.0
sg5
I127017
sg6
I01
sg7
F0.0
sg8
S'mark.koenig@enron.com'
p660
sg10
I53
sg11
F0.0
sg12
I2271
sg13
F0.0
sg14
I61
sg15
I150458
sS'ceo_to_employee_salary_difference'
p661
I801312
sg17
F0.0
sg18
I700000
sg19
I1920055
sg20
I15
sg21
I300000
sg22
I1248318
sg23
I309946
sg24
I1587421
sS'ceo_to_employee_bonus_difference'
p662
I4900000
sg26
I671737
ssS'SAVAGE FRANK'
p663
(dp664
g3
F0.0
sg4
F0.0
sg5
F0.0
sg6
I00
sg7
I-121284
sg8
g29
sg10
F0.0
sg11
F0.0
sg12
F0.0
sg13
F0.0
sg14
F0.0
sg15
F0.0
sS'ceo_to_employee_salary_difference'
p665
F1111258.0
sg17
I125034
sg18
F0.0
sg19
F0.0
sg20
F0.0
sg21
F0.0
sg22
F0.0
sg23
F0.0
sg24
I3750
sS'ceo_to_employee_bonus_difference'
p666
F5600000.0
sg26
F0.0
ssS'IZZO LAWRENCE L'
p667
(dp668
g3
I496
sg4
F0.0
sg5
I28093
sg6
I00
sg7
F0.0
sg8
S'larry.izzo@enron.com'
p669
sg10
I28
sg11
F0.0
sg12
I437
sg13
F0.0
sg14
I19
sg15
I1553729
sS'ceo_to_employee_salary_difference'
p670
I1025984
sg17
F0.0
sg18
F0.0
sg19
I5819980
sg20
I5
sg21
I312500
sg22
I3654808
sg23
I85274
sg24
I1979596
sS'ceo_to_employee_bonus_difference'
p671
F5600000.0
sg26
I2165172
ssS'TILNEY ELIZABETH A'
p672
(dp673
g3
I460
sg4
F0.0
sg5
F0.0
sg6
I00
sg7
I-575000
sg8
S'elizabeth.tilney@enron.com'
p674
sg10
I10
sg11
F0.0
sg12
I379
sg13
F0.0
sg14
I19
sg15
I152055
sS'ceo_to_employee_salary_difference'
p675
I863920
sg17
F0.0
sg18
I300000
sg19
I1168042
sg20
I11
sg21
I275000
sg22
I576792
sg23
I247338
sg24
I399393
sS'ceo_to_employee_bonus_difference'
p676
I5300000
sg26
I591250
ssS'MARTIN AMANDA K'
p677
(dp678
g3
I1522
sg4
I85430
sg5
I8211
sg6
I00
sg7
F0.0
sg8
S'a..martin@enron.com'
p679
sg10
I8
sg11
F0.0
sg12
I477
sg13
F0.0
sg14
I230
sg15
I2818454
sS'ceo_to_employee_salary_difference'
p680
I761771
sg17
F0.0
sg18
F0.0
sg19
I2070306
sg20
I0
sg21
I5145434
sg22
F0.0
sg23
I349487
sg24
I8407016
sS'ceo_to_employee_bonus_difference'
p681
F5600000.0
sg26
I2070306
ssS'BUY RICHARD B'
p682
(dp683
g3
I3523
sg4
I649584
sg5
F0.0
sg6
I00
sg7
I-694862
sg8
S'rick.buy@enron.com'
p684
sg10
I156
sg11
F0.0
sg12
I2333
sg13
F0.0
sg14
I1053
sg15
I400572
sS'ceo_to_employee_salary_difference'
p685
I780712
sg17
F0.0
sg18
I900000
sg19
I3444470
sg20
I71
sg21
I769862
sg22
I901657
sg23
I330546
sg24
I2355702
sS'ceo_to_employee_bonus_difference'
p686
I4700000
sg26
I2542813
ssS'GRAMM WENDY L'
p687
(dp688
g3
F0.0
sg4
F0.0
sg5
F0.0
sg6
I00
sg7
F0.0
sg8
g29
sg10
F0.0
sg11
F0.0
sg12
F0.0
sg13
F0.0
sg14
F0.0
sg15
F0.0
sS'ceo_to_employee_salary_difference'
p689
F1111258.0
sg17
I119292
sg18
F0.0
sg19
F0.0
sg20
F0.0
sg21
F0.0
sg22
F0.0
sg23
F0.0
sg24
I119292
sS'ceo_to_employee_bonus_difference'
p690
F5600000.0
sg26
F0.0
ssS'CAUSEY RICHARD A'
p691
(dp692
g3
I1892
sg4
F0.0
sg5
I30674
sg6
I01
sg7
I-235000
sg8
S'richard.causey@enron.com'
p693
sg10
I58
sg11
F0.0
sg12
I1585
sg13
F0.0
sg14
I49
sg15
I307895
sS'ceo_to_employee_salary_difference'
p694
I696069
sg17
F0.0
sg18
I1000000
sg19
I2502063
sg20
I12
sg21
I350000
sg22
I2502063
sg23
I415189
sg24
I1868758
sS'ceo_to_employee_bonus_difference'
p695
I4600000
sg26
F0.0
ssS'TAYLOR MITCHELL S'
p696
(dp697
g3
I533
sg4
I227449
sg5
F0.0
sg6
I00
sg7
F0.0
sg8
S'mitchell.taylor@enron.com'
p698
sg10
I0
sg11
F0.0
sg12
I300
sg13
F0.0
sg14
I29
sg15
F0.0
sS'ceo_to_employee_salary_difference'
p699
I846044
sg17
F0.0
sg18
I600000
sg19
I3745048
sg20
I0
sg21
F0.0
sg22
I563798
sg23
I265214
sg24
I1092663
sS'ceo_to_employee_bonus_difference'
p700
I5000000
sg26
I3181250
ssS'DONAHUE JR JEFFREY M'
p701
(dp702
g3
I865
sg4
F0.0
sg5
I96268
sg6
I00
sg7
I-300000
sg8
S'jeff.donahue@enron.com'
p703
sg10
I188
sg11
F0.0
sg12
I772
sg13
F0.0
sg14
I22
sg15
I891
sS'ceo_to_employee_salary_difference'
p704
I832657
sg17
F0.0
sg18
I800000
sg19
I1080988
sg20
I11
sg21
F0.0
sg22
I315068
sg23
I278601
sg24
I875760
sS'ceo_to_employee_bonus_difference'
p705
I4800000
sg26
I765920
ssS'GLISAN JR BEN F'
p706
(dp707
g3
I873
sg4
F0.0
sg5
I125978
sg6
I01
sg7
F0.0
sg8
S'ben.glisan@enron.com'
p708
sg10
I52
sg11
F0.0
sg12
I874
sg13
F0.0
sg14
I16
sg15
I200308
sS'ceo_to_employee_salary_difference'
p709
I836283
sg17
F0.0
sg18
I600000
sg19
I778546
sg20
I6
sg21
I71023
sg22
I393818
sg23
I274975
sg24
I1272284
sS'ceo_to_employee_bonus_difference'
p710
I5000000
sg26
I384728
ss.